target datalayout = "e-m:e-p270:32:32-p271:32:32-p272:64:64-i64:64-i128:128-f80:128-n8:16:32:64-S128"
target triple = "x86_64-pc-linux-gnu"

@.str = private unnamed_addr constant [32 x i8] c"../openssl/crypto/rsa/rsa_pk1.c\00", align 1
@__func__.ossl_rsa_padding_add_PKCS1_type_2_ex = private unnamed_addr constant [37 x i8] c"ossl_rsa_padding_add_PKCS1_type_2_ex\00", align 1

; Function Attrs: nounwind uwtable
define i32 @ossl_rsa_padding_add_PKCS1_type_2_ex(ptr noundef %0, ptr noundef %1, i32 noundef %2, ptr noundef %3, i32 noundef %4) #0 {
  %6 = alloca i32, align 4
  %7 = alloca ptr, align 8
  %8 = alloca ptr, align 8
  %9 = alloca i32, align 4
  %10 = alloca ptr, align 8
  %11 = alloca i32, align 4
  %12 = alloca i32, align 4
  %13 = alloca i32, align 4
  %14 = alloca ptr, align 8
  %15 = alloca i32, align 4
  store ptr %0, ptr %7, align 8, !tbaa !13
  store ptr %1, ptr %8, align 8, !tbaa !3
  store i32 %2, ptr %9, align 4, !tbaa !8
  store ptr %3, ptr %10, align 8, !tbaa !3
  store i32 %4, ptr %11, align 4, !tbaa !8
  call void @llvm.lifetime.start.p0(i64 4, ptr %12) #6
  call void @llvm.lifetime.start.p0(i64 4, ptr %13) #6
  call void @llvm.lifetime.start.p0(i64 8, ptr %14) #6
  %16 = load i32, ptr %11, align 4, !tbaa !8
  %17 = load i32, ptr %9, align 4, !tbaa !8
  %18 = sub nsw i32 %17, 11
  %19 = icmp sgt i32 %16, %18
  br i1 %19, label %20, label %21

20:                                               ; preds = %5
  call void @ERR_new()
  call void @ERR_set_debug(ptr noundef @.str, i32 noundef 133, ptr noundef @__func__.ossl_rsa_padding_add_PKCS1_type_2_ex)
  call void (i32, i32, ptr, ...) @ERR_set_error(i32 noundef 4, i32 noundef 110, ptr noundef null)
  store i32 0, ptr %6, align 4
  store i32 1, ptr %15, align 4
  br label %80

21:                                               ; preds = %5
  %22 = load i32, ptr %11, align 4, !tbaa !8
  %23 = icmp slt i32 %22, 0
  br i1 %23, label %24, label %25

24:                                               ; preds = %21
  call void @ERR_new()
  call void @ERR_set_debug(ptr noundef @.str, i32 noundef 136, ptr noundef @__func__.ossl_rsa_padding_add_PKCS1_type_2_ex)
  call void (i32, i32, ptr, ...) @ERR_set_error(i32 noundef 4, i32 noundef 181, ptr noundef null)
  store i32 0, ptr %6, align 4
  store i32 1, ptr %15, align 4
  br label %80

25:                                               ; preds = %21
  br label %26

26:                                               ; preds = %25
  %27 = load ptr, ptr %8, align 8, !tbaa !3
  store ptr %27, ptr %14, align 8, !tbaa !3
  %28 = load ptr, ptr %14, align 8, !tbaa !3
  %29 = getelementptr inbounds nuw i8, ptr %28, i32 1
  store ptr %29, ptr %14, align 8, !tbaa !3
  store i8 0, ptr %28, align 1, !tbaa !10
  %30 = load ptr, ptr %14, align 8, !tbaa !3
  %31 = getelementptr inbounds nuw i8, ptr %30, i32 1
  store ptr %31, ptr %14, align 8, !tbaa !3
  store i8 2, ptr %30, align 1, !tbaa !10
  %32 = load i32, ptr %9, align 4, !tbaa !8
  %33 = sub nsw i32 %32, 3
  %34 = load i32, ptr %11, align 4, !tbaa !8
  %35 = sub nsw i32 %33, %34
  store i32 %35, ptr %13, align 4, !tbaa !8
  %36 = load ptr, ptr %7, align 8, !tbaa !13
  %37 = load ptr, ptr %14, align 8, !tbaa !3
  %38 = load i32, ptr %13, align 4, !tbaa !8
  %39 = sext i32 %38 to i64
  %40 = call i32 @RAND_bytes_ex(ptr noundef %36, ptr noundef %37, i64 noundef %39, i32 noundef 0)
  %41 = icmp sle i32 %40, 0
  br i1 %41, label %42, label %43

42:                                               ; preds = %26
  store i32 0, ptr %6, align 4
  store i32 1, ptr %15, align 4
  br label %80

43:                                               ; preds = %26
  store i32 0, ptr %12, align 4, !tbaa !8
  br label %44

44:                                               ; preds = %70, %43
  %45 = load i32, ptr %12, align 4, !tbaa !8
  %46 = load i32, ptr %13, align 4, !tbaa !8
  %47 = icmp slt i32 %45, %46
  br i1 %47, label %48, label %73

48:                                               ; preds = %44
  %49 = load ptr, ptr %14, align 8, !tbaa !3
  %50 = load i8, ptr %49, align 1, !tbaa !10
  %51 = zext i8 %50 to i32
  %52 = icmp eq i32 %51, 0
  br i1 %52, label %53, label %67

53:                                               ; preds = %48
  br label %54

54:                                               ; preds = %61, %53
  %55 = load ptr, ptr %7, align 8, !tbaa !13
  %56 = load ptr, ptr %14, align 8, !tbaa !3
  %57 = call i32 @RAND_bytes_ex(ptr noundef %55, ptr noundef %56, i64 noundef 1, i32 noundef 0)
  %58 = icmp sle i32 %57, 0
  br i1 %58, label %59, label %60

59:                                               ; preds = %54
  store i32 0, ptr %6, align 4
  store i32 1, ptr %15, align 4
  br label %80

60:                                               ; preds = %54
  br label %61

61:                                               ; preds = %60
  %62 = load ptr, ptr %14, align 8, !tbaa !3
  %63 = load i8, ptr %62, align 1, !tbaa !10
  %64 = zext i8 %63 to i32
  %65 = icmp eq i32 %64, 0
  br i1 %65, label %54, label %66, !llvm.loop !15

66:                                               ; preds = %61
  br label %67

67:                                               ; preds = %66, %48
  %68 = load ptr, ptr %14, align 8, !tbaa !3
  %69 = getelementptr inbounds nuw i8, ptr %68, i32 1
  store ptr %69, ptr %14, align 8, !tbaa !3
  br label %70

70:                                               ; preds = %67
  %71 = load i32, ptr %12, align 4, !tbaa !8
  %72 = add nsw i32 %71, 1
  store i32 %72, ptr %12, align 4, !tbaa !8
  br label %44, !llvm.loop !16

73:                                               ; preds = %44
  %74 = load ptr, ptr %14, align 8, !tbaa !3
  %75 = getelementptr inbounds nuw i8, ptr %74, i32 1
  store ptr %75, ptr %14, align 8, !tbaa !3
  store i8 0, ptr %74, align 1, !tbaa !10
  %76 = load ptr, ptr %14, align 8, !tbaa !3
  %77 = load ptr, ptr %10, align 8, !tbaa !3
  %78 = load i32, ptr %11, align 4, !tbaa !8
  %79 = zext i32 %78 to i64
  call void @llvm.memcpy.p0.p0.i64(ptr align 1 %76, ptr align 1 %77, i64 %79, i1 false)
  store i32 1, ptr %6, align 4
  store i32 1, ptr %15, align 4
  br label %80

80:                                               ; preds = %73, %59, %42, %24, %20
  call void @llvm.lifetime.end.p0(i64 8, ptr %14) #6
  call void @llvm.lifetime.end.p0(i64 4, ptr %13) #6
  call void @llvm.lifetime.end.p0(i64 4, ptr %12) #6
  %81 = load i32, ptr %6, align 4
  ret i32 %81
}