; Function Attrs: nounwind uwtable
define range(i32 0, 2) i32 @ossl_rsa_padding_add_PKCS1_type_2_ex(ptr noundef %0, ptr noundef %1, i32 noundef %2, ptr noundef readonly captures(none) %3, i32 noundef %4) local_unnamed_addr #0 {
  %6 = add nsw i32 %2, -11
  %7 = icmp sgt i32 %4, %6
  br i1 %7, label %8, label %9

8:                                                ; preds = %5
  tail call void @ERR_new() #5
  tail call void @ERR_set_debug(ptr noundef nonnull @.str, i32 noundef 133, ptr noundef nonnull @__func__.ossl_rsa_padding_add_PKCS1_type_2_ex) #5
  tail call void (i32, i32, ptr, ...) @ERR_set_error(i32 noundef 4, i32 noundef 110, ptr noundef null) #5
  br label %.loopexit

9:                                                ; preds = %5
  %10 = icmp slt i32 %4, 0
  br i1 %10, label %11, label %12

11:                                               ; preds = %9
  tail call void @ERR_new() #5
  tail call void @ERR_set_debug(ptr noundef nonnull @.str, i32 noundef 136, ptr noundef nonnull @__func__.ossl_rsa_padding_add_PKCS1_type_2_ex) #5
  tail call void (i32, i32, ptr, ...) @ERR_set_error(i32 noundef 4, i32 noundef 181, ptr noundef null) #5
  br label %.loopexit

12:                                               ; preds = %9
  %13 = getelementptr inbounds nuw i8, ptr %1, i64 1
  store i8 0, ptr %1, align 1, !tbaa !3
  %14 = getelementptr inbounds nuw i8, ptr %1, i64 2
  store i8 2, ptr %13, align 1, !tbaa !3
  %15 = add nsw i32 %2, -3
  %16 = sub i32 %15, %4
  %17 = sext i32 %16 to i64
  %18 = tail call i32 @RAND_bytes_ex(ptr noundef %0, ptr noundef nonnull %14, i64 noundef %17, i32 noundef 0) #5
  %19 = icmp slt i32 %18, 1
  br i1 %19, label %.loopexit, label %.preheader27

.preheader27:                                     ; preds = %12
  %20 = icmp sgt i32 %16, 0
  br i1 %20, label %.lr.ph, label %._crit_edge

.lr.ph:                                           ; preds = %.preheader27, %.loopexit26
  %.030 = phi ptr [ %28, %.loopexit26 ], [ %14, %.preheader27 ]
  %.02429 = phi i32 [ %29, %.loopexit26 ], [ 0, %.preheader27 ]
  %21 = load i8, ptr %.030, align 1, !tbaa !3
  %22 = icmp eq i8 %21, 0
  br i1 %22, label %.preheader, label %.loopexit26

.preheader:                                       ; preds = %.lr.ph, %25
  %23 = tail call i32 @RAND_bytes_ex(ptr noundef %0, ptr noundef nonnull %.030, i64 noundef 1, i32 noundef 0) #5
  %24 = icmp slt i32 %23, 1
  br i1 %24, label %.loopexit, label %25

25:                                               ; preds = %.preheader
  %26 = load i8, ptr %.030, align 1, !tbaa !3
  %27 = icmp eq i8 %26, 0
  br i1 %27, label %.preheader, label %.loopexit26, !llvm.loop !8

.loopexit26:                                      ; preds = %25, %.lr.ph
  %28 = getelementptr inbounds nuw i8, ptr %.030, i64 1
  %29 = add nuw nsw i32 %.02429, 1
  %exitcond.not = icmp eq i32 %29, %16
  br i1 %exitcond.not, label %._crit_edge, label %.lr.ph, !llvm.loop !9

._crit_edge:                                      ; preds = %.loopexit26, %.preheader27
  %.0.lcssa = phi ptr [ %14, %.preheader27 ], [ %28, %.loopexit26 ]
  %30 = getelementptr inbounds nuw i8, ptr %.0.lcssa, i64 1
  store i8 0, ptr %.0.lcssa, align 1, !tbaa !3
  %31 = zext nneg i32 %4 to i64
  tail call void @llvm.memcpy.p0.p0.i64(ptr nonnull align 1 %30, ptr align 1 %3, i64 %31, i1 false)
  br label %.loopexit

.loopexit:                                        ; preds = %.preheader, %12, %._crit_edge, %11, %8
  %.023 = phi i32 [ 0, %8 ], [ 0, %11 ], [ 1, %._crit_edge ], [ 0, %12 ], [ 0, %.preheader ]
  ret i32 %.023
}